	.file	"main.c"
	.text
.Ltext0:
	.globl	rdtsc
	.type	rdtsc, @function
rdtsc:
.LFB4224:
	.file 1 "libs/include/cyle_count.h"
	.loc 1 8 17
	.cfi_startproc
	endbr64
	pushq	%rbp
	.cfi_def_cfa_offset 16
	.cfi_offset 6, -16
	movq	%rsp, %rbp
	.cfi_def_cfa_register 6
	.loc 1 10 5
#APP
# 10 "libs/include/cyle_count.h" 1
	rdtsc
# 0 "" 2
#NO_APP
	movl	%eax, -8(%rbp)
	movl	%edx, -4(%rbp)
	.loc 1 11 13
	movl	-4(%rbp), %eax
	.loc 1 11 26
	salq	$32, %rax
	movq	%rax, %rdx
	.loc 1 11 33
	movl	-8(%rbp), %eax
	orq	%rdx, %rax
	.loc 1 12 1
	popq	%rbp
	.cfi_def_cfa 7, 8
	ret
	.cfi_endproc
.LFE4224:
	.size	rdtsc, .-rdtsc
	.globl	sum
	.type	sum, @function
sum:
.LFB4225:
	.file 2 "src/main.c"
	.loc 2 4 22
	.cfi_startproc
	endbr64
	pushq	%rbp
	.cfi_def_cfa_offset 16
	.cfi_offset 6, -16
	movq	%rsp, %rbp
	.cfi_def_cfa_register 6
	movl	%edi, -4(%rbp)
	movl	%esi, -8(%rbp)
	.loc 2 5 14
	movl	-4(%rbp), %edx
	movl	-8(%rbp), %eax
	addl	%edx, %eax
	.loc 2 6 1
	popq	%rbp
	.cfi_def_cfa 7, 8
	ret
	.cfi_endproc
.LFE4225:
	.size	sum, .-sum
	.section	.rodata
.LC0:
	.string	"LINUS dettected"
.LC1:
	.string	"Hello World!!"
.LC2:
	.string	"Cycles taken: %010lu\n"
	.text
	.globl	main
	.type	main, @function
main:
.LFB4226:
	.loc 2 8 15
	.cfi_startproc
	endbr64
	pushq	%rbp
	.cfi_def_cfa_offset 16
	.cfi_offset 6, -16
	movq	%rsp, %rbp
	.cfi_def_cfa_register 6
	subq	$16, %rsp
	.loc 2 12 5
	leaq	.LC0(%rip), %rdi
	call	puts@PLT
	.loc 2 17 23
	movl	$0, %eax
	call	rdtsc
	movq	%rax, -8(%rbp)
	.loc 2 18 5
	leaq	.LC1(%rip), %rdi
	call	puts@PLT
	.loc 2 20 14
	movl	$0, %eax
	call	rdtsc
	.loc 2 20 12
	subq	-8(%rbp), %rax
	movq	%rax, -8(%rbp)
	.loc 2 21 5
	movq	-8(%rbp), %rax
	movq	%rax, %rsi
	leaq	.LC2(%rip), %rdi
	movl	$0, %eax
	call	printf@PLT
	.loc 2 23 12
	movl	$0, %eax
	.loc 2 24 1
	leave
	.cfi_def_cfa 7, 8
	ret
	.cfi_endproc
.LFE4226:
	.size	main, .-main
.Letext0:
	.file 3 "/usr/lib/gcc/x86_64-linux-gnu/9/include/stddef.h"
	.file 4 "/usr/include/x86_64-linux-gnu/bits/types.h"
	.file 5 "/usr/include/x86_64-linux-gnu/bits/types/struct_FILE.h"
	.file 6 "/usr/include/x86_64-linux-gnu/bits/types/FILE.h"
	.file 7 "/usr/include/stdio.h"
	.file 8 "/usr/include/x86_64-linux-gnu/bits/stdint-uintn.h"
	.section	.note.GNU-stack,"",@progbits
	.section	.note.gnu.property,"a"
	.align 8
	.long	 1f - 0f
	.long	 4f - 1f
	.long	 5
0:
	.string	 "GNU"
1:
	.align 8
	.long	 0xc0000002
	.long	 3f - 2f
2:
	.long	 0x3
3:
	.align 8
4:
